target datalayout = "e-m:e-p270:32:32-p271:32:32-p272:64:64-i64:64-i128:128-f80:128-n8:16:32:64-S128"
target triple = "x86_64-pc-linux-gnu"

; Function Attrs: mustprogress uwtable
define noundef zeroext i1 @_ZN5Yosys8patmatchEPKcS1_(ptr noundef %0, ptr noundef %1) #4 {
  %3 = alloca i1, align 1
  %4 = alloca ptr, align 8
  %5 = alloca ptr, align 8
  %6 = alloca i8, align 1
  %7 = alloca i8, align 1
  %8 = alloca ptr, align 8
  %9 = alloca i32, align 4
  store ptr %0, ptr %4, align 8, !tbaa !33
  store ptr %1, ptr %5, align 8, !tbaa !33
  %10 = load ptr, ptr %4, align 8, !tbaa !33
  %11 = load i8, ptr %10, align 1, !tbaa !37
  %12 = sext i8 %11 to i32
  %13 = icmp eq i32 %12, 0
  br i1 %13, label %14, label %19

14:                                               ; preds = %2
  %15 = load ptr, ptr %5, align 8, !tbaa !33
  %16 = load i8, ptr %15, align 1, !tbaa !37
  %17 = sext i8 %16 to i32
  %18 = icmp eq i32 %17, 0
  store i1 %18, ptr %3, align 1
  br label %173

19:                                               ; preds = %2
  %20 = load ptr, ptr %4, align 8, !tbaa !33
  %21 = load i8, ptr %20, align 1, !tbaa !37
  %22 = sext i8 %21 to i32
  %23 = icmp eq i32 %22, 92
  br i1 %23, label %24, label %42

24:                                               ; preds = %19
  %25 = load ptr, ptr %4, align 8, !tbaa !33
  %26 = getelementptr inbounds i8, ptr %25, i64 1
  %27 = load i8, ptr %26, align 1, !tbaa !37
  %28 = sext i8 %27 to i32
  %29 = load ptr, ptr %5, align 8, !tbaa !33
  %30 = getelementptr inbounds i8, ptr %29, i64 0
  %31 = load i8, ptr %30, align 1, !tbaa !37
  %32 = sext i8 %31 to i32
  %33 = icmp eq i32 %28, %32
  br i1 %33, label %34, label %41

34:                                               ; preds = %24
  %35 = load ptr, ptr %4, align 8, !tbaa !33
  %36 = getelementptr inbounds i8, ptr %35, i64 2
  %37 = load ptr, ptr %5, align 8, !tbaa !33
  %38 = getelementptr inbounds i8, ptr %37, i64 1
  %39 = call noundef zeroext i1 @_ZN5Yosys8patmatchEPKcS1_(ptr noundef %36, ptr noundef %38)
  br i1 %39, label %40, label %41

40:                                               ; preds = %34
  store i1 true, ptr %3, align 1
  br label %173

41:                                               ; preds = %34, %24
  br label %42

42:                                               ; preds = %41, %19
  %43 = load ptr, ptr %4, align 8, !tbaa !33
  %44 = load i8, ptr %43, align 1, !tbaa !37
  %45 = sext i8 %44 to i32
  %46 = icmp eq i32 %45, 63
  br i1 %46, label %47, label %59

47:                                               ; preds = %42
  %48 = load ptr, ptr %5, align 8, !tbaa !33
  %49 = load i8, ptr %48, align 1, !tbaa !37
  %50 = sext i8 %49 to i32
  %51 = icmp eq i32 %50, 0
  br i1 %51, label %52, label %53

52:                                               ; preds = %47
  store i1 false, ptr %3, align 1
  br label %173

53:                                               ; preds = %47
  %54 = load ptr, ptr %4, align 8, !tbaa !33
  %55 = getelementptr inbounds i8, ptr %54, i64 1
  %56 = load ptr, ptr %5, align 8, !tbaa !33
  %57 = getelementptr inbounds i8, ptr %56, i64 1
  %58 = call noundef zeroext i1 @_ZN5Yosys8patmatchEPKcS1_(ptr noundef %55, ptr noundef %57)
  store i1 %58, ptr %3, align 1
  br label %173

59:                                               ; preds = %42
  %60 = load ptr, ptr %4, align 8, !tbaa !33
  %61 = load i8, ptr %60, align 1, !tbaa !37
  %62 = sext i8 %61 to i32
  %63 = icmp eq i32 %62, 42
  br i1 %63, label %64, label %83

64:                                               ; preds = %59
  br label %65

65:                                               ; preds = %76, %64
  %66 = load ptr, ptr %5, align 8, !tbaa !33
  %67 = load i8, ptr %66, align 1, !tbaa !37
  %68 = icmp ne i8 %67, 0
  br i1 %68, label %69, label %77

69:                                               ; preds = %65
  %70 = load ptr, ptr %4, align 8, !tbaa !33
  %71 = getelementptr inbounds i8, ptr %70, i64 1
  %72 = load ptr, ptr %5, align 8, !tbaa !33
  %73 = getelementptr inbounds nuw i8, ptr %72, i32 1
  store ptr %73, ptr %5, align 8, !tbaa !33
  %74 = call noundef zeroext i1 @_ZN5Yosys8patmatchEPKcS1_(ptr noundef %71, ptr noundef %72)
  br i1 %74, label %75, label %76

75:                                               ; preds = %69
  store i1 true, ptr %3, align 1
  br label %173

76:                                               ; preds = %69
  br label %65, !llvm.loop !57

77:                                               ; preds = %65
  %78 = load ptr, ptr %4, align 8, !tbaa !33
  %79 = getelementptr inbounds i8, ptr %78, i64 1
  %80 = load i8, ptr %79, align 1, !tbaa !37
  %81 = sext i8 %80 to i32
  %82 = icmp eq i32 %81, 0
  store i1 %82, ptr %3, align 1
  br label %173

83:                                               ; preds = %59
  %84 = load ptr, ptr %4, align 8, !tbaa !33
  %85 = load i8, ptr %84, align 1, !tbaa !37
  %86 = sext i8 %85 to i32
  %87 = icmp eq i32 %86, 91
  br i1 %87, label %88, label %158

88:                                               ; preds = %83
  call void @llvm.lifetime.start.p0(i64 1, ptr %6) #3
  store i8 0, ptr %6, align 1, !tbaa !23
  call void @llvm.lifetime.start.p0(i64 1, ptr %7) #3
  %89 = load ptr, ptr %4, align 8, !tbaa !33
  %90 = getelementptr inbounds i8, ptr %89, i64 1
  %91 = load i8, ptr %90, align 1, !tbaa !37
  %92 = sext i8 %91 to i32
  %93 = icmp eq i32 %92, 33
  %94 = zext i1 %93 to i8
  store i8 %94, ptr %7, align 1, !tbaa !23
  call void @llvm.lifetime.start.p0(i64 8, ptr %8) #3
  %95 = load ptr, ptr %4, align 8, !tbaa !33
  %96 = load i8, ptr %7, align 1, !tbaa !23, !range !38, !noundef !39
  %97 = trunc i8 %96 to i1
  %98 = select i1 %97, i32 1, i32 0
  %99 = sext i32 %98 to i64
  %100 = getelementptr inbounds i8, ptr %95, i64 %99
  store ptr %100, ptr %8, align 8, !tbaa !33
  br label %101

101:                                              ; preds = %153, %88
  %102 = load ptr, ptr %8, align 8, !tbaa !33
  %103 = getelementptr inbounds nuw i8, ptr %102, i32 1
  store ptr %103, ptr %8, align 8, !tbaa !33
  %104 = load i8, ptr %103, align 1, !tbaa !37
  %105 = icmp ne i8 %104, 0
  br i1 %105, label %106, label %154

106:                                              ; preds = %101
  %107 = load ptr, ptr %8, align 8, !tbaa !33
  %108 = load i8, ptr %107, align 1, !tbaa !37
  %109 = sext i8 %108 to i32
  %110 = icmp eq i32 %109, 93
  br i1 %110, label %111, label %127

111:                                              ; preds = %106
  %112 = load i8, ptr %6, align 1, !tbaa !23, !range !38, !noundef !39
  %113 = trunc i8 %112 to i1
  %114 = zext i1 %113 to i32
  %115 = load i8, ptr %7, align 1, !tbaa !23, !range !38, !noundef !39
  %116 = trunc i8 %115 to i1
  %117 = zext i1 %116 to i32
  %118 = icmp ne i32 %114, %117
  br i1 %118, label %119, label %126

119:                                              ; preds = %111
  %120 = load ptr, ptr %8, align 8, !tbaa !33
  %121 = getelementptr inbounds i8, ptr %120, i64 1
  %122 = load ptr, ptr %5, align 8, !tbaa !33
  %123 = getelementptr inbounds i8, ptr %122, i64 1
  %124 = call noundef zeroext i1 @_ZN5Yosys8patmatchEPKcS1_(ptr noundef %121, ptr noundef %123)
  br i1 %124, label %125, label %126

125:                                              ; preds = %119
  store i1 true, ptr %3, align 1
  store i32 1, ptr %9, align 4
  br label %155

126:                                              ; preds = %119, %111
  br label %154

127:                                              ; preds = %106
  %128 = load ptr, ptr %8, align 8, !tbaa !33
  %129 = load i8, ptr %128, align 1, !tbaa !37
  %130 = sext i8 %129 to i32
  %131 = icmp eq i32 %130, 92
  br i1 %131, label %132, label %143

132:                                              ; preds = %127
  %133 = load ptr, ptr %8, align 8, !tbaa !33
  %134 = getelementptr inbounds nuw i8, ptr %133, i32 1
  store ptr %134, ptr %8, align 8, !tbaa !33
  %135 = load i8, ptr %134, align 1, !tbaa !37
  %136 = sext i8 %135 to i32
  %137 = load ptr, ptr %5, align 8, !tbaa !33
  %138 = load i8, ptr %137, align 1, !tbaa !37
  %139 = sext i8 %138 to i32
  %140 = icmp eq i32 %136, %139
  br i1 %140, label %141, label %142

141:                                              ; preds = %132
  store i8 1, ptr %6, align 1, !tbaa !23
  br label %142

142:                                              ; preds = %141, %132
  br label %153

143:                                              ; preds = %127
  %144 = load ptr, ptr %8, align 8, !tbaa !33
  %145 = load i8, ptr %144, align 1, !tbaa !37
  %146 = sext i8 %145 to i32
  %147 = load ptr, ptr %5, align 8, !tbaa !33
  %148 = load i8, ptr %147, align 1, !tbaa !37
  %149 = sext i8 %148 to i32
  %150 = icmp eq i32 %146, %149
  br i1 %150, label %151, label %152

151:                                              ; preds = %143
  store i8 1, ptr %6, align 1, !tbaa !23
  br label %152

152:                                              ; preds = %151, %143
  br label %153

153:                                              ; preds = %152, %142
  br label %101, !llvm.loop !58

154:                                              ; preds = %126, %101
  store i32 0, ptr %9, align 4
  br label %155

155:                                              ; preds = %154, %125
  call void @llvm.lifetime.end.p0(i64 8, ptr %8) #3
  call void @llvm.lifetime.end.p0(i64 1, ptr %7) #3
  call void @llvm.lifetime.end.p0(i64 1, ptr %6) #3
  %156 = load i32, ptr %9, align 4
  switch i32 %156, label %175 [
    i32 0, label %157
    i32 1, label %173
  ]

157:                                              ; preds = %155
  br label %158

158:                                              ; preds = %157, %83
  %159 = load ptr, ptr %4, align 8, !tbaa !33
  %160 = load i8, ptr %159, align 1, !tbaa !37
  %161 = sext i8 %160 to i32
  %162 = load ptr, ptr %5, align 8, !tbaa !33
  %163 = load i8, ptr %162, align 1, !tbaa !37
  %164 = sext i8 %163 to i32
  %165 = icmp eq i32 %161, %164
  br i1 %165, label %166, label %172

166:                                              ; preds = %158
  %167 = load ptr, ptr %4, align 8, !tbaa !33
  %168 = getelementptr inbounds i8, ptr %167, i64 1
  %169 = load ptr, ptr %5, align 8, !tbaa !33
  %170 = getelementptr inbounds i8, ptr %169, i64 1
  %171 = call noundef zeroext i1 @_ZN5Yosys8patmatchEPKcS1_(ptr noundef %168, ptr noundef %170)
  store i1 %171, ptr %3, align 1
  br label %173

172:                                              ; preds = %158
  store i1 false, ptr %3, align 1
  br label %173

173:                                              ; preds = %172, %166, %155, %77, %75, %53, %52, %40, %14
  %174 = load i1, ptr %3, align 1
  ret i1 %174

175:                                              ; preds = %155
  unreachable
}