; Function Attrs: mustprogress nofree nosync nounwind willreturn memory(argmem: read) uwtable
define noundef zeroext i1 @_ZN5Yosys8patmatchEPKcS1_(ptr noundef %0, ptr noundef %1) local_unnamed_addr #14 {
  br label %tailrecurse

tailrecurse:                                      ; preds = %tailrecurse.backedge, %2
  %.tr = phi ptr [ %0, %2 ], [ %.tr.be, %tailrecurse.backedge ]
  %.tr52 = phi ptr [ %1, %2 ], [ %.tr52.be, %tailrecurse.backedge ]
  %3 = load i8, ptr %.tr, align 1, !tbaa !43
  switch i8 %3, label %.thread [
    i8 0, label %5
    i8 92, label %8
    i8 63, label %17
    i8 42, label %.preheader
    i8 91, label %28
  ]

.preheader:                                       ; preds = %tailrecurse
  %4 = getelementptr inbounds nuw i8, ptr %.tr, i64 1
  br label %20

5:                                                ; preds = %tailrecurse
  %6 = load i8, ptr %.tr52, align 1, !tbaa !43
  %7 = icmp eq i8 %6, 0
  br label %.loopexit

8:                                                ; preds = %tailrecurse
  %9 = getelementptr inbounds nuw i8, ptr %.tr, i64 1
  %10 = load i8, ptr %9, align 1, !tbaa !43
  %11 = load i8, ptr %.tr52, align 1, !tbaa !43
  %12 = icmp eq i8 %10, %11
  br i1 %12, label %13, label %.thread

13:                                               ; preds = %8
  %14 = getelementptr inbounds nuw i8, ptr %.tr, i64 2
  %15 = getelementptr inbounds nuw i8, ptr %.tr52, i64 1
  %16 = tail call noundef zeroext i1 @_ZN5Yosys8patmatchEPKcS1_(ptr noundef nonnull %14, ptr noundef nonnull %15)
  br i1 %16, label %.loopexit, label %.thread

17:                                               ; preds = %tailrecurse
  %18 = load i8, ptr %.tr52, align 1, !tbaa !43
  %19 = icmp eq i8 %18, 0
  br i1 %19, label %.loopexit, label %tailrecurse.backedge

tailrecurse.backedge:                             ; preds = %.thread, %17
  %.tr52.be = getelementptr inbounds nuw i8, ptr %.tr52, i64 1
  %.tr.be = getelementptr inbounds nuw i8, ptr %.tr, i64 1
  br label %tailrecurse

20:                                               ; preds = %.preheader, %22
  %.041 = phi ptr [ %23, %22 ], [ %.tr52, %.preheader ]
  %21 = load i8, ptr %.041, align 1, !tbaa !43
  %.not47 = icmp eq i8 %21, 0
  br i1 %.not47, label %25, label %22

22:                                               ; preds = %20
  %23 = getelementptr inbounds nuw i8, ptr %.041, i64 1
  %24 = tail call noundef zeroext i1 @_ZN5Yosys8patmatchEPKcS1_(ptr noundef nonnull %4, ptr noundef nonnull %.041)
  br i1 %24, label %.loopexit, label %20, !llvm.loop !70

25:                                               ; preds = %20
  %26 = load i8, ptr %4, align 1, !tbaa !43
  %27 = icmp eq i8 %26, 0
  br label %.loopexit

28:                                               ; preds = %tailrecurse
  %29 = getelementptr inbounds nuw i8, ptr %.tr, i64 1
  %30 = load i8, ptr %29, align 1, !tbaa !43
  %31 = icmp eq i8 %30, 33
  %32 = zext i1 %31 to i64
  %33 = getelementptr inbounds nuw i8, ptr %.tr, i64 %32
  br label %34

34:                                               ; preds = %46, %28
  %.039 = phi i1 [ false, %28 ], [ %spec.select48, %46 ]
  %.036 = phi ptr [ %33, %28 ], [ %.1, %46 ]
  %35 = getelementptr inbounds nuw i8, ptr %.036, i64 1
  %36 = load i8, ptr %35, align 1, !tbaa !43
  switch i8 %36, label %46 [
    i8 0, label %.thread
    i8 93, label %37
    i8 92, label %43
  ]

37:                                               ; preds = %34
  %38 = xor i1 %31, %.039
  br i1 %38, label %39, label %.thread

39:                                               ; preds = %37
  %40 = getelementptr inbounds nuw i8, ptr %.036, i64 2
  %41 = getelementptr inbounds nuw i8, ptr %.tr52, i64 1
  %42 = tail call noundef zeroext i1 @_ZN5Yosys8patmatchEPKcS1_(ptr noundef nonnull %40, ptr noundef nonnull %41)
  br i1 %42, label %.loopexit, label %.thread

43:                                               ; preds = %34
  %44 = getelementptr inbounds nuw i8, ptr %.036, i64 2
  %45 = load i8, ptr %44, align 1, !tbaa !43
  br label %46

46:                                               ; preds = %34, %43
  %.sink74 = phi i8 [ %45, %43 ], [ %36, %34 ]
  %.1 = phi ptr [ %44, %43 ], [ %35, %34 ]
  %47 = load i8, ptr %.tr52, align 1, !tbaa !43
  %48 = icmp eq i8 %.sink74, %47
  %spec.select48 = select i1 %48, i1 true, i1 %.039
  br label %34, !llvm.loop !71

.thread:                                          ; preds = %34, %tailrecurse, %37, %39, %13, %8
  %49 = load i8, ptr %.tr52, align 1, !tbaa !43
  %50 = icmp eq i8 %3, %49
  br i1 %50, label %tailrecurse.backedge, label %.loopexit

.loopexit:                                        ; preds = %39, %.thread, %17, %13, %22, %25, %5
  %.037 = phi i1 [ %7, %5 ], [ %27, %25 ], [ true, %22 ], [ true, %39 ], [ false, %.thread ], [ false, %17 ], [ true, %13 ]
  ret i1 %.037
}